target datalayout = "e-m:e-p270:32:32-p271:32:32-p272:64:64-i64:64-i128:128-f80:128-n8:16:32:64-S128"
target triple = "x86_64-pc-linux-gnu"

%class.ForeignLambdaTerms = type <{ i32, [4 x i8], ptr, %"class.std::vector", %"class.std::vector.0", i8, [7 x i8] }>
%"class.std::vector" = type { %"struct.std::_Vector_base" }
%"struct.std::_Vector_base" = type { %"struct.std::_Vector_base<double, std::allocator<double>>::_Vector_impl" }
%"struct.std::_Vector_base<double, std::allocator<double>>::_Vector_impl" = type { %"struct.std::_Vector_base<double, std::allocator<double>>::_Vector_impl_data" }
%"struct.std::_Vector_base<double, std::allocator<double>>::_Vector_impl_data" = type { ptr, ptr, ptr }
%"class.std::vector.0" = type { %"struct.std::_Vector_base.1" }
%"struct.std::_Vector_base.1" = type { %"struct.std::_Vector_base<gmx::EnumerationArray<FreeEnergyPerturbationCouplingType, double>, std::allocator<gmx::EnumerationArray<FreeEnergyPerturbationCouplingType, double>>>::_Vector_impl" }
%"struct.std::_Vector_base<gmx::EnumerationArray<FreeEnergyPerturbationCouplingType, double>, std::allocator<gmx::EnumerationArray<FreeEnergyPerturbationCouplingType, double>>>::_Vector_impl" = type { %"struct.std::_Vector_base<gmx::EnumerationArray<FreeEnergyPerturbationCouplingType, double>, std::allocator<gmx::EnumerationArray<FreeEnergyPerturbationCouplingType, double>>>::_Vector_impl_data" }
%"struct.std::_Vector_base<gmx::EnumerationArray<FreeEnergyPerturbationCouplingType, double>, std::allocator<gmx::EnumerationArray<FreeEnergyPerturbationCouplingType, double>>>::_Vector_impl_data" = type { ptr, ptr, ptr }
%"struct.gmx::EnumerationArray.5" = type { [7 x double] }

; Function Attrs: mustprogress nounwind uwtable
define linkonce_odr noundef nonnull align 8 dereferenceable(8) ptr @_ZN3gmx16EnumerationArrayI34FreeEnergyPerturbationCouplingTypedLS1_7EEixES1_(ptr noundef nonnull align 8 dereferenceable(56) %0, i32 noundef %1) #1 comdat align 2 {
  %3 = alloca ptr, align 8
  %4 = alloca i32, align 4
  store ptr %0, ptr %3, align 8
  store i32 %1, ptr %4, align 4
  %5 = load ptr, ptr %3, align 8
  %6 = getelementptr inbounds %"struct.gmx::EnumerationArray.5", ptr %5, i32 0, i32 0
  %7 = load i32, ptr %4, align 4
  %8 = sext i32 %7 to i64
  %9 = getelementptr inbounds [7 x double], ptr %6, i64 0, i64 %8
  ret ptr %9
}

; Function Attrs: mustprogress nounwind uwtable
define linkonce_odr noundef nonnull align 8 dereferenceable(56) ptr @_ZNSt6vectorIN3gmx16EnumerationArrayI34FreeEnergyPerturbationCouplingTypedLS2_7EEESaIS3_EEixEm(ptr noundef nonnull align 8 dereferenceable(24) %0, i64 noundef %1) #1 comdat align 2 {
  %3 = alloca ptr, align 8
  %4 = alloca i64, align 8
  store ptr %0, ptr %3, align 8
  store i64 %1, ptr %4, align 8
  %5 = load ptr, ptr %3, align 8
  %6 = getelementptr inbounds %"struct.std::_Vector_base.1", ptr %5, i32 0, i32 0
  %7 = getelementptr inbounds %"struct.std::_Vector_base<gmx::EnumerationArray<FreeEnergyPerturbationCouplingType, double>, std::allocator<gmx::EnumerationArray<FreeEnergyPerturbationCouplingType, double>>>::_Vector_impl_data", ptr %6, i32 0, i32 0
  %8 = load ptr, ptr %7, align 8
  %9 = load i64, ptr %4, align 8
  %10 = getelementptr inbounds %"struct.gmx::EnumerationArray.5", ptr %8, i64 %9
  ret ptr %10
}

; Function Attrs: mustprogress nounwind uwtable
define linkonce_odr noundef nonnull align 8 dereferenceable(8) ptr @_ZNSt6vectorIdSaIdEEixEm(ptr noundef nonnull align 8 dereferenceable(24) %0, i64 noundef %1) #1 comdat align 2 {
  %3 = alloca ptr, align 8
  %4 = alloca i64, align 8
  store ptr %0, ptr %3, align 8
  store i64 %1, ptr %4, align 8
  %5 = load ptr, ptr %3, align 8
  %6 = getelementptr inbounds %"struct.std::_Vector_base", ptr %5, i32 0, i32 0
  %7 = getelementptr inbounds %"struct.std::_Vector_base<double, std::allocator<double>>::_Vector_impl_data", ptr %6, i32 0, i32 0
  %8 = load ptr, ptr %7, align 8
  %9 = load i64, ptr %4, align 8
  %10 = getelementptr inbounds double, ptr %8, i64 %9
  ret ptr %10
}

; Function Attrs: mustprogress nounwind uwtable
define void @_ZN18ForeignLambdaTerms17accumulateKineticEidd(ptr noundef nonnull align 8 dereferenceable(65) %0, i32 noundef %1, double noundef %2, double noundef %3) #1 align 2 {
  %5 = alloca ptr, align 8
  %6 = alloca i32, align 4
  %7 = alloca double, align 8
  %8 = alloca double, align 8
  store ptr %0, ptr %5, align 8
  store i32 %1, ptr %6, align 4
  store double %2, ptr %7, align 8
  store double %3, ptr %8, align 8
  %9 = load ptr, ptr %5, align 8
  %10 = load double, ptr %7, align 8
  %11 = getelementptr inbounds %class.ForeignLambdaTerms, ptr %9, i32 0, i32 3
  %12 = load i32, ptr %6, align 4
  %13 = sext i32 %12 to i64
  %14 = call noundef nonnull align 8 dereferenceable(8) ptr @_ZNSt6vectorIdSaIdEEixEm(ptr noundef nonnull align 8 dereferenceable(24) %11, i64 noundef %13) #12
  %15 = load double, ptr %14, align 8
  %16 = fadd double %15, %10
  store double %16, ptr %14, align 8
  %17 = load double, ptr %8, align 8
  %18 = getelementptr inbounds %class.ForeignLambdaTerms, ptr %9, i32 0, i32 4
  %19 = load i32, ptr %6, align 4
  %20 = sext i32 %19 to i64
  %21 = call noundef nonnull align 8 dereferenceable(56) ptr @_ZNSt6vectorIN3gmx16EnumerationArrayI34FreeEnergyPerturbationCouplingTypedLS2_7EEESaIS3_EEixEm(ptr noundef nonnull align 8 dereferenceable(24) %18, i64 noundef %20) #12
  %22 = call noundef nonnull align 8 dereferenceable(8) ptr @_ZN3gmx16EnumerationArrayI34FreeEnergyPerturbationCouplingTypedLS1_7EEixES1_(ptr noundef nonnull align 8 dereferenceable(56) %21, i32 noundef 6)
  %23 = load double, ptr %22, align 8
  %24 = fadd double %23, %17
  store double %24, ptr %22, align 8
  ret void
}