; Function Attrs: mustprogress nofree norecurse nosync nounwind willreturn memory(readwrite, inaccessiblemem: none) uwtable
define void @_ZN18ForeignLambdaTerms17accumulateKineticEidd(ptr nocapture noundef nonnull readonly align 8 dereferenceable(65) %0, i32 noundef %1, double noundef %2, double noundef %3) local_unnamed_addr #12 align 2 {
  %5 = getelementptr inbounds i8, ptr %0, i64 16
  %6 = sext i32 %1 to i64
  %7 = load ptr, ptr %5, align 8
  %8 = getelementptr inbounds double, ptr %7, i64 %6
  %9 = load double, ptr %8, align 8
  %10 = fadd double %9, %2
  store double %10, ptr %8, align 8
  %11 = getelementptr inbounds i8, ptr %0, i64 40
  %12 = load ptr, ptr %11, align 8
  %13 = getelementptr inbounds %"struct.gmx::EnumerationArray.5", ptr %12, i64 %6, i32 0, i64 6
  %14 = load double, ptr %13, align 8
  %15 = fadd double %14, %3
  store double %15, ptr %13, align 8
  ret void
}